target datalayout = "e-m:e-p270:32:32-p271:32:32-p272:64:64-i64:64-i128:128-f80:128-n8:16:32:64-S128"
target triple = "x86_64-pc-linux-gnu"

%class.TypedMethodOptionMatcher = type { %class.MethodMatcher, ptr, i32, %union.anon }
%class.MethodMatcher = type { ptr, ptr, ptr, i32, i32 }
%union.anon = type { i64 }
%class.ttyLocker = type { i64 }

@tty = external global ptr, align 8
@_ZL7any_set = internal global i8 0, align 1
@_ZL11option_list = internal global ptr null, align 8
@LogCompilation = external global i8, align 1
@UnlockExperimentalVMOptions = external global i8, align 1
@_ZN14CompilerOracle6_quietE = hidden global i8 0, align 1
@_ZL13option_filter = internal global [41 x i8] zeroinitializer, align 16
@.str.134 = private unnamed_addr constant [93 x i8] c"Warning:  +LogCompilation must be enabled in order for individual methods to be logged with \00", align 1
@.str.135 = private unnamed_addr constant [46 x i8] c"          CompileCommand=log,<method pattern>\00", align 1
@.str.136 = private unnamed_addr constant [98 x i8] c"Blackhole compile option is experimental and must be enabled via -XX:+UnlockExperimentalVMOptions\00", align 1
@.str.137 = private unnamed_addr constant [20 x i8] c"CompileCommand: %s \00", align 1
@_ZN24TypedMethodOptionMatcherD1Ev = hidden unnamed_addr alias void (ptr), ptr @_ZN24TypedMethodOptionMatcherD2Ev

; Function Attrs: mustprogress nounwind uwtable
define linkonce_odr hidden void @_ZN12CHeapObjBasedlEPv(ptr noundef %0) #1 comdat align 2 {
  %2 = alloca ptr, align 8
  store ptr %0, ptr %2, align 8
  %3 = load ptr, ptr %2, align 8
  call void @_Z8FreeHeapPv(ptr noundef %3)
  ret void
}

; Function Attrs: mustprogress nounwind uwtable
define linkonce_odr hidden void @_ZN9ttyLockerD2Ev(ptr noundef nonnull align 8 dereferenceable(8) %0) unnamed_addr #1 comdat align 2 {
  %2 = alloca ptr, align 8
  store ptr %0, ptr %2, align 8
  %3 = load ptr, ptr %2, align 8
  %4 = getelementptr inbounds %class.ttyLocker, ptr %3, i32 0, i32 0
  %5 = load i64, ptr %4, align 8
  call void @_ZN9ttyLocker11release_ttyEl(i64 noundef %5)
  ret void
}

; Function Attrs: mustprogress nounwind uwtable
define internal noundef ptr @_ZL11option2name18CompileCommandEnum(i32 noundef %0) #1 {
  %2 = alloca i32, align 4
  store i32 %0, ptr %2, align 4
  %3 = load i32, ptr %2, align 4
  %4 = sext i32 %3 to i64
  %5 = getelementptr inbounds [41 x ptr], ptr @_ZL12option_names, i64 0, i64 %4
  %6 = load ptr, ptr %5, align 8
  ret ptr %6
}

; Function Attrs: mustprogress nounwind uwtable
define linkonce_odr hidden void @_ZN9ttyLockerC2Ev(ptr noundef nonnull align 8 dereferenceable(8) %0) unnamed_addr #1 comdat align 2 {
  %2 = alloca ptr, align 8
  store ptr %0, ptr %2, align 8
  %3 = load ptr, ptr %2, align 8
  %4 = call noundef i64 @_ZN9ttyLocker8hold_ttyEv()
  %5 = getelementptr inbounds %class.ttyLocker, ptr %3, i32 0, i32 0
  store i64 %4, ptr %5, align 8
  ret void
}

; Function Attrs: mustprogress nounwind uwtable
define linkonce_odr hidden noundef zeroext i1 @_ZN14CompilerOracle8be_quietEv() #1 comdat align 2 {
  %1 = load i8, ptr @_ZN14CompilerOracle6_quietE, align 1
  %2 = trunc i8 %1 to i1
  ret i1 %2
}

; Function Attrs: mustprogress nounwind uwtable
define internal void @_ZL21command_set_in_filter18CompileCommandEnum(i32 noundef %0) #1 {
  %2 = alloca i32, align 4
  store i32 %0, ptr %2, align 4
  %3 = load i32, ptr %2, align 4
  %4 = icmp ne i32 %3, 5
  br i1 %4, label %5, label %12

5:                                                ; preds = %1
  %6 = load i32, ptr %2, align 4
  %7 = icmp ne i32 %6, 4
  br i1 %7, label %8, label %12

8:                                                ; preds = %5
  %9 = load i32, ptr %2, align 4
  %10 = icmp ne i32 %9, 2
  br i1 %10, label %11, label %12

11:                                               ; preds = %8
  store i8 1, ptr @_ZL7any_set, align 1
  br label %12

12:                                               ; preds = %11, %8, %5, %1
  %13 = load i32, ptr %2, align 4
  %14 = sext i32 %13 to i64
  %15 = getelementptr inbounds [41 x i8], ptr @_ZL13option_filter, i64 0, i64 %14
  store i8 1, ptr %15, align 1
  ret void
}

; Function Attrs: mustprogress nounwind uwtable
define hidden void @_ZN24TypedMethodOptionMatcher9set_valueImEEvT_(ptr noundef nonnull align 8 dereferenceable(56) %0, i64 noundef %1) #1 align 2 {
  %3 = alloca ptr, align 8
  %4 = alloca i64, align 8
  store ptr %0, ptr %3, align 8
  store i64 %1, ptr %4, align 8
  %5 = load ptr, ptr %3, align 8
  %6 = load i64, ptr %4, align 8
  %7 = getelementptr inbounds %class.TypedMethodOptionMatcher, ptr %5, i32 0, i32 3
  store i64 %6, ptr %7, align 8
  ret void
}

; Function Attrs: mustprogress nounwind uwtable
define linkonce_odr hidden void @_ZN24TypedMethodOptionMatcher4initE18CompileCommandEnumPS_(ptr noundef nonnull align 8 dereferenceable(56) %0, i32 noundef %1, ptr noundef %2) #1 comdat align 2 {
  %4 = alloca ptr, align 8
  %5 = alloca i32, align 4
  %6 = alloca ptr, align 8
  store ptr %0, ptr %4, align 8
  store i32 %1, ptr %5, align 4
  store ptr %2, ptr %6, align 8
  %7 = load ptr, ptr %4, align 8
  %8 = load ptr, ptr %6, align 8
  %9 = getelementptr inbounds %class.TypedMethodOptionMatcher, ptr %7, i32 0, i32 1
  store ptr %8, ptr %9, align 8
  %10 = load i32, ptr %5, align 4
  %11 = getelementptr inbounds %class.TypedMethodOptionMatcher, ptr %7, i32 0, i32 2
  store i32 %10, ptr %11, align 8
  ret void
}

; Function Attrs: mustprogress nounwind uwtable
define linkonce_odr hidden void @_ZN8CHeapObjIL8MEMFLAGS7EEdlEPv(ptr noundef %0) #1 comdat align 2 {
  %2 = alloca ptr, align 8
  store ptr %0, ptr %2, align 8
  %3 = load ptr, ptr %2, align 8
  call void @_ZN12CHeapObjBasedlEPv(ptr noundef %3) #11
  ret void
}

; Function Attrs: mustprogress nounwind uwtable
define internal void @_ZL16register_commandImEvP24TypedMethodOptionMatcher18CompileCommandEnumT_(ptr noundef %0, i32 noundef %1, i64 noundef %2) #1 {
  %4 = alloca ptr, align 8
  %5 = alloca i32, align 4
  %6 = alloca i64, align 8
  %7 = alloca %class.ttyLocker, align 8
  store ptr %0, ptr %4, align 8
  store i32 %1, ptr %5, align 4
  store i64 %2, ptr %6, align 8
  %8 = load i32, ptr %5, align 4
  %9 = icmp eq i32 %8, 2
  br i1 %9, label %10, label %16

10:                                               ; preds = %3
  %11 = load i8, ptr @LogCompilation, align 1
  %12 = trunc i8 %11 to i1
  br i1 %12, label %16, label %13

13:                                               ; preds = %10
  %14 = load ptr, ptr @tty, align 8
  call void (ptr, ptr, ...) @_ZN12outputStream8print_crEPKcz(ptr noundef nonnull align 8 dereferenceable(56) %14, ptr noundef @.str.134)
  %15 = load ptr, ptr @tty, align 8
  call void (ptr, ptr, ...) @_ZN12outputStream8print_crEPKcz(ptr noundef nonnull align 8 dereferenceable(56) %15, ptr noundef @.str.135)
  br label %16

16:                                               ; preds = %13, %10, %3
  %17 = load i32, ptr %5, align 4
  %18 = icmp eq i32 %17, 6
  br i1 %18, label %19, label %27

19:                                               ; preds = %16
  %20 = load i8, ptr @UnlockExperimentalVMOptions, align 1
  %21 = trunc i8 %20 to i1
  br i1 %21, label %27, label %22

22:                                               ; preds = %19
  call void (ptr, ...) @_Z7warningPKcz(ptr noundef @.str.136)
  %23 = load ptr, ptr %4, align 8
  %24 = icmp eq ptr %23, null
  br i1 %24, label %26, label %25

25:                                               ; preds = %22
  call void @_ZN24TypedMethodOptionMatcherD1Ev(ptr noundef nonnull align 8 dereferenceable(56) %23) #11
  call void @_ZN8CHeapObjIL8MEMFLAGS7EEdlEPv(ptr noundef %23) #11
  br label %26

26:                                               ; preds = %25, %22
  br label %42

27:                                               ; preds = %19, %16
  %28 = load ptr, ptr %4, align 8
  %29 = load i32, ptr %5, align 4
  %30 = load ptr, ptr @_ZL11option_list, align 8
  call void @_ZN24TypedMethodOptionMatcher4initE18CompileCommandEnumPS_(ptr noundef nonnull align 8 dereferenceable(56) %28, i32 noundef %29, ptr noundef %30)
  %31 = load ptr, ptr %4, align 8
  %32 = load i64, ptr %6, align 8
  call void @_ZN24TypedMethodOptionMatcher9set_valueImEEvT_(ptr noundef nonnull align 8 dereferenceable(56) %31, i64 noundef %32)
  %33 = load ptr, ptr %4, align 8
  store ptr %33, ptr @_ZL11option_list, align 8
  %34 = load i32, ptr %5, align 4
  call void @_ZL21command_set_in_filter18CompileCommandEnum(i32 noundef %34)
  %35 = call noundef zeroext i1 @_ZN14CompilerOracle8be_quietEv()
  br i1 %35, label %41, label %36

36:                                               ; preds = %27
  call void @_ZN9ttyLockerC2Ev(ptr noundef nonnull align 8 dereferenceable(8) %7)
  %37 = load ptr, ptr @tty, align 8
  %38 = load i32, ptr %5, align 4
  %39 = call noundef ptr @_ZL11option2name18CompileCommandEnum(i32 noundef %38)
  call void (ptr, ptr, ...) @_ZN12outputStream5printEPKcz(ptr noundef nonnull align 8 dereferenceable(56) %37, ptr noundef @.str.137, ptr noundef %39)
  %40 = load ptr, ptr %4, align 8
  call void @_ZN24TypedMethodOptionMatcher5printEv(ptr noundef nonnull align 8 dereferenceable(56) %40)
  call void @_ZN9ttyLockerD2Ev(ptr noundef nonnull align 8 dereferenceable(8) %7) #11
  br label %41

41:                                               ; preds = %36, %27
  br label %42

42:                                               ; preds = %41, %26
  ret void
}