; Function Attrs: mustprogress nounwind uwtable
define internal fastcc void @_ZL16register_commandImEvP24TypedMethodOptionMatcher18CompileCommandEnumT_(ptr noundef %0, i32 noundef %1, i64 noundef %2) unnamed_addr #2 {
  switch i32 %1, label %.split [
    i32 2, label %4
    i32 6, label %22
  ]

4:                                                ; preds = %3
  %5 = load i8, ptr @LogCompilation, align 1
  %6 = trunc i8 %5 to i1
  br i1 %6, label %.split.thread, label %7

7:                                                ; preds = %4
  %8 = load ptr, ptr @tty, align 8
  tail call void (ptr, ptr, ...) @_ZN12outputStream8print_crEPKcz(ptr noundef nonnull align 8 dereferenceable(56) %8, ptr noundef nonnull @.str.134) #19
  %9 = load ptr, ptr @tty, align 8
  tail call void (ptr, ptr, ...) @_ZN12outputStream8print_crEPKcz(ptr noundef nonnull align 8 dereferenceable(56) %9, ptr noundef nonnull @.str.135) #19
  br label %.split.thread

.split.thread:                                    ; preds = %4, %7
  %10 = load ptr, ptr @_ZL11option_list, align 8
  %11 = getelementptr inbounds i8, ptr %0, i64 32
  store ptr %10, ptr %11, align 8
  %12 = getelementptr inbounds i8, ptr %0, i64 40
  store i32 2, ptr %12, align 8
  %13 = getelementptr inbounds i8, ptr %0, i64 48
  store i64 %2, ptr %13, align 8
  store ptr %0, ptr @_ZL11option_list, align 8
  br label %_ZL21command_set_in_filter18CompileCommandEnum.exit

.split:                                           ; preds = %3
  %14 = load ptr, ptr @_ZL11option_list, align 8
  %15 = getelementptr inbounds i8, ptr %0, i64 32
  store ptr %14, ptr %15, align 8
  %16 = getelementptr inbounds i8, ptr %0, i64 40
  store i32 %1, ptr %16, align 8
  %17 = getelementptr inbounds i8, ptr %0, i64 48
  store i64 %2, ptr %17, align 8
  store ptr %0, ptr @_ZL11option_list, align 8
  %18 = and i32 %1, -2
  %switch = icmp eq i32 %18, 4
  br i1 %switch, label %_ZL21command_set_in_filter18CompileCommandEnum.exit, label %19

19:                                               ; preds = %.split
  store i1 true, ptr @_ZL7any_set, align 1
  br label %_ZL21command_set_in_filter18CompileCommandEnum.exit

_ZL21command_set_in_filter18CompileCommandEnum.exit: ; preds = %.split, %.split.thread, %19
  %20 = sext i32 %1 to i64
  %21 = getelementptr inbounds [41 x i8], ptr @_ZL13option_filter, i64 0, i64 %20
  br label %41

22:                                               ; preds = %3
  %23 = load i8, ptr @UnlockExperimentalVMOptions, align 1
  %24 = trunc i8 %23 to i1
  br i1 %24, label %.split10, label %29

.split10:                                         ; preds = %22
  %25 = load ptr, ptr @_ZL11option_list, align 8
  %26 = getelementptr inbounds i8, ptr %0, i64 32
  store ptr %25, ptr %26, align 8
  %27 = getelementptr inbounds i8, ptr %0, i64 40
  store i32 6, ptr %27, align 8
  %28 = getelementptr inbounds i8, ptr %0, i64 48
  store i64 %2, ptr %28, align 8
  store ptr %0, ptr @_ZL11option_list, align 8
  store i1 true, ptr @_ZL7any_set, align 1
  br label %41

29:                                               ; preds = %22
  tail call void (ptr, ...) @_Z7warningPKcz(ptr noundef nonnull @.str.136) #19
  %30 = icmp eq ptr %0, null
  br i1 %30, label %50, label %31

31:                                               ; preds = %29
  %32 = getelementptr inbounds i8, ptr %0, i64 40
  %33 = load i32, ptr %32, align 8
  %34 = sext i32 %33 to i64
  %35 = getelementptr inbounds [41 x i32], ptr @_ZL12option_types, i64 0, i64 %34
  %36 = load i32, ptr %35, align 4
  %37 = add i32 %36, -3
  %or.cond.i = icmp ult i32 %37, 2
  br i1 %or.cond.i, label %38, label %_ZN24TypedMethodOptionMatcherD2Ev.exit

38:                                               ; preds = %31
  %39 = getelementptr inbounds i8, ptr %0, i64 48
  %40 = load ptr, ptr %39, align 8
  tail call void @_ZN2os4freeEPv(ptr noundef %40) #19
  br label %_ZN24TypedMethodOptionMatcherD2Ev.exit

_ZN24TypedMethodOptionMatcherD2Ev.exit:           ; preds = %31, %38
  tail call void @_ZN13MethodMatcherD2Ev(ptr noundef nonnull align 8 dereferenceable(32) %0) #19
  tail call void @_Z8FreeHeapPv(ptr noundef nonnull %0) #19
  br label %50

41:                                               ; preds = %.split10, %_ZL21command_set_in_filter18CompileCommandEnum.exit
  %.sink = phi ptr [ getelementptr inbounds (i8, ptr @_ZL13option_filter, i64 6), %.split10 ], [ %21, %_ZL21command_set_in_filter18CompileCommandEnum.exit ]
  store i8 1, ptr %.sink, align 1
  %42 = load i8, ptr @_ZN14CompilerOracle6_quietE, align 1
  %43 = trunc i8 %42 to i1
  br i1 %43, label %50, label %44

44:                                               ; preds = %41
  %45 = tail call noundef i64 @_ZN9ttyLocker8hold_ttyEv() #19
  %46 = load ptr, ptr @tty, align 8
  %47 = sext i32 %1 to i64
  %48 = getelementptr inbounds [41 x ptr], ptr @_ZL12option_names, i64 0, i64 %47
  %49 = load ptr, ptr %48, align 8
  tail call void (ptr, ptr, ...) @_ZN12outputStream5printEPKcz(ptr noundef nonnull align 8 dereferenceable(56) %46, ptr noundef nonnull @.str.137, ptr noundef %49) #19
  tail call void @_ZN24TypedMethodOptionMatcher5printEv(ptr noundef nonnull align 8 dereferenceable(56) %0)
  tail call void @_ZN9ttyLocker11release_ttyEl(i64 noundef %45) #19
  br label %50

50:                                               ; preds = %41, %44, %29, %_ZN24TypedMethodOptionMatcherD2Ev.exit
  ret void
}